; Function Attrs: uwtable
define void @_ZThn32_N8proxygen2hq14HQControlCodec11parseGoawayERN5folly2io6CursorERKNS0_11FrameHeaderE(ptr noalias sret(%"class.folly::Optional") align 8 %agg.result, ptr nocapture noundef readonly %this, ptr noundef nonnull align 8 dereferenceable(56) %cursor, ptr noundef nonnull align 8 dereferenceable(16) %header) unnamed_addr #9 align 2 personality ptr @__gxx_personality_v0 {
entry:
  %outStreamId.i = alloca i64, align 8
  %agg.tmp.i = alloca %"class.std::unique_ptr", align 8
  tail call void @llvm.experimental.noalias.scope.decl(metadata !20)
  call void @llvm.lifetime.start.p0(i64 8, ptr nonnull %outStreamId.i)
  call void @llvm.lifetime.start.p0(i64 8, ptr nonnull %agg.tmp.i)
  call void @_ZN8proxygen2hq11parseGoawayERN5folly2io6CursorERKNS0_11FrameHeaderERm(ptr sret(%"class.folly::Optional") align 8 %agg.result, ptr noundef nonnull align 8 dereferenceable(56) %cursor, ptr noundef nonnull align 8 dereferenceable(16) %header, ptr noundef nonnull align 8 dereferenceable(8) %outStreamId.i) #25
  %hasValue.i.i.i = getelementptr inbounds i8, ptr %agg.result, i64 8
  %0 = load i8, ptr %hasValue.i.i.i, align 8, !alias.scope !20
  %1 = and i8 %0, 1
  %tobool.i.i.not.i = icmp eq i8 %1, 0
  br i1 %tobool.i.i.not.i, label %land.lhs.true.i, label %_ZN8proxygen2hq14HQControlCodec11parseGoawayERN5folly2io6CursorERKNS0_11FrameHeaderE.exit

land.lhs.true.i:                                  ; preds = %entry
  %callback_.i = getelementptr inbounds i8, ptr %this, i64 24
  %2 = load ptr, ptr %callback_.i, align 8, !noalias !20
  %tobool.not.i = icmp eq ptr %2, null
  br i1 %tobool.not.i, label %_ZN8proxygen2hq14HQControlCodec11parseGoawayERN5folly2io6CursorERKNS0_11FrameHeaderE.exit, label %if.then.i

if.then.i:                                        ; preds = %land.lhs.true.i
  %3 = load i64, ptr %outStreamId.i, align 8, !noalias !20
  store ptr null, ptr %agg.tmp.i, align 8, !noalias !20
  %vtable.i = load ptr, ptr %2, align 8
  %vfn.i = getelementptr inbounds i8, ptr %vtable.i, i64 96
  %4 = load ptr, ptr %vfn.i, align 8
  invoke void %4(ptr noundef nonnull align 8 dereferenceable(8) %2, i64 noundef %3, i8 noundef zeroext 0, ptr noundef nonnull %agg.tmp.i)
          to label %invoke.cont.i unwind label %lpad.i

invoke.cont.i:                                    ; preds = %if.then.i
  %5 = load ptr, ptr %agg.tmp.i, align 8, !noalias !20
  %cmp.not.i.i = icmp eq ptr %5, null
  br i1 %cmp.not.i.i, label %_ZN8proxygen2hq14HQControlCodec11parseGoawayERN5folly2io6CursorERKNS0_11FrameHeaderE.exit, label %_ZNKSt14default_deleteIN5folly5IOBufEEclEPS1_.exit.i.i

_ZNKSt14default_deleteIN5folly5IOBufEEclEPS1_.exit.i.i: ; preds = %invoke.cont.i
  call void @_ZN5folly5IOBufD1Ev(ptr noundef nonnull align 8 dereferenceable(56) %5) #25
  call void @_ZN5folly5IOBufdlEPv(ptr noundef nonnull %5) #25
  br label %_ZN8proxygen2hq14HQControlCodec11parseGoawayERN5folly2io6CursorERKNS0_11FrameHeaderE.exit

lpad.i:                                           ; preds = %if.then.i
  %6 = landingpad { ptr, i32 }
          cleanup
  call void @_ZNSt10unique_ptrIN5folly5IOBufESt14default_deleteIS1_EED2Ev(ptr noundef nonnull align 8 dereferenceable(8) %agg.tmp.i) #25
  resume { ptr, i32 } %6

_ZN8proxygen2hq14HQControlCodec11parseGoawayERN5folly2io6CursorERKNS0_11FrameHeaderE.exit: ; preds = %entry, %land.lhs.true.i, %invoke.cont.i, %_ZNKSt14default_deleteIN5folly5IOBufEEclEPS1_.exit.i.i
  call void @llvm.lifetime.end.p0(i64 8, ptr nonnull %outStreamId.i)
  call void @llvm.lifetime.end.p0(i64 8, ptr nonnull %agg.tmp.i)
  ret void
}